target datalayout = "e-m:e-p270:32:32-p271:32:32-p272:64:64-i64:64-i128:128-f80:128-n8:16:32:64-S128"
target triple = "x86_64-pc-linux-gnu"

%struct.expert_field = type { i32, i32 }

@hf_nfapi_csi_rs_flag = internal global i32 0, align 4
@hf_nfapi_csi_rs_resource_config_r10 = internal global i32 0, align 4
@hf_nfapi_csi_rs_zero_tx_power_resource_config_bitmap_r10 = internal global i32 0, align 4
@hf_nfapi_csi_rs_number_of_nzp_configurations = internal global i32 0, align 4
@hf_nfapi_pdsch_start = internal global i32 0, align 4
@ett_nfapi_csi_rs_resource_configs = internal global i32 0, align 4
@ei_invalid_range = internal global %struct.expert_field zeroinitializer, align 4
@.str.1839 = private unnamed_addr constant [3 x i8] c"%s\00", align 1
@.str.1840 = private unnamed_addr constant [5 x i8] c"[%d]\00", align 1
@.str.2057 = private unnamed_addr constant [33 x i8] c"Invalid csi-rs flag value [0..1]\00", align 1
@.str.2058 = private unnamed_addr constant [56 x i8] c"Invalid csi-rs number of nzp configuration value [0..3]\00", align 1
@.str.2059 = private unnamed_addr constant [24 x i8] c"CSI-RS Resource Configs\00", align 1
@.str.2060 = private unnamed_addr constant [33 x i8] c"Invalid pdsch start value [0..4]\00", align 1

; Function Attrs: nounwind uwtable
define internal void @dissect_array_value(ptr noundef %0, ptr noundef %1, ptr noundef %2, i32 noundef %3, i32 noundef %4, ptr noundef %5) #0 {
  %7 = alloca ptr, align 8
  %8 = alloca ptr, align 8
  %9 = alloca ptr, align 8
  %10 = alloca i32, align 4
  %11 = alloca i32, align 4
  %12 = alloca ptr, align 8
  %13 = alloca i16, align 2
  store ptr %0, ptr %7, align 8
  store ptr %1, ptr %8, align 8
  store ptr %2, ptr %9, align 8
  store i32 %3, ptr %10, align 4
  store i32 %4, ptr %11, align 4
  store ptr %5, ptr %12, align 8
  %14 = load i32, ptr %11, align 4
  %15 = icmp ugt i32 %14, 0
  br i1 %15, label %16, label %41

16:                                               ; preds = %6
  %17 = load ptr, ptr %7, align 8
  %18 = load i32, ptr %10, align 4
  %19 = load ptr, ptr %9, align 8
  %20 = call ptr (ptr, i32, i32, ptr, ...) @ptvcursor_add_text_with_subtree(ptr noundef %17, i32 noundef -1, i32 noundef %18, ptr noundef @.str.1839, ptr noundef %19)
  store i16 0, ptr %13, align 2
  br label %21

21:                                               ; preds = %36, %16
  %22 = load i16, ptr %13, align 2
  %23 = zext i16 %22 to i32
  %24 = load i32, ptr %11, align 4
  %25 = icmp ult i32 %23, %24
  br i1 %25, label %26, label %39

26:                                               ; preds = %21
  %27 = load ptr, ptr %7, align 8
  %28 = load i32, ptr %10, align 4
  %29 = load i16, ptr %13, align 2
  %30 = zext i16 %29 to i32
  %31 = call ptr (ptr, i32, i32, ptr, ...) @ptvcursor_add_text_with_subtree(ptr noundef %27, i32 noundef -1, i32 noundef %28, ptr noundef @.str.1840, i32 noundef %30)
  %32 = load ptr, ptr %12, align 8
  %33 = load ptr, ptr %7, align 8
  %34 = load ptr, ptr %8, align 8
  call void %32(ptr noundef %33, ptr noundef %34)
  %35 = load ptr, ptr %7, align 8
  call void @ptvcursor_pop_subtree(ptr noundef %35)
  br label %36

36:                                               ; preds = %26
  %37 = load i16, ptr %13, align 2
  %38 = add i16 %37, 1
  store i16 %38, ptr %13, align 2
  br label %21, !llvm.loop !4

39:                                               ; preds = %21
  %40 = load ptr, ptr %7, align 8
  call void @ptvcursor_pop_subtree(ptr noundef %40)
  br label %41

41:                                               ; preds = %39, %6
  ret void
}

; Function Attrs: nounwind uwtable
define internal void @dissect_dl_config_request_dlsch_pdu_rel10_value(ptr noundef %0, ptr noundef %1) #0 {
  %3 = alloca ptr, align 8
  %4 = alloca ptr, align 8
  %5 = alloca ptr, align 8
  %6 = alloca i32, align 4
  %7 = alloca i32, align 4
  %8 = alloca i32, align 4
  store ptr %0, ptr %3, align 8
  store ptr %1, ptr %4, align 8
  %9 = load ptr, ptr %3, align 8
  %10 = load i32, ptr @hf_nfapi_csi_rs_flag, align 4
  %11 = call ptr @ptvcursor_add_ret_boolean(ptr noundef %9, i32 noundef %10, i32 noundef 1, i32 noundef 0, ptr noundef %8)
  store ptr %11, ptr %5, align 8
  %12 = load i32, ptr %8, align 4
  %13 = icmp sgt i32 %12, 1
  br i1 %13, label %14, label %18

14:                                               ; preds = %2
  %15 = load ptr, ptr %4, align 8
  %16 = load ptr, ptr %5, align 8
  %17 = call ptr (ptr, ptr, ptr, ptr, ...) @expert_add_info_format(ptr noundef %15, ptr noundef %16, ptr noundef @ei_invalid_range, ptr noundef @.str.2057)
  br label %18

18:                                               ; preds = %14, %2
  %19 = load ptr, ptr %3, align 8
  %20 = load i32, ptr @hf_nfapi_csi_rs_resource_config_r10, align 4
  %21 = call ptr @ptvcursor_add(ptr noundef %19, i32 noundef %20, i32 noundef 1, i32 noundef 0)
  %22 = load ptr, ptr %3, align 8
  %23 = load i32, ptr @hf_nfapi_csi_rs_zero_tx_power_resource_config_bitmap_r10, align 4
  %24 = call ptr @ptvcursor_add(ptr noundef %22, i32 noundef %23, i32 noundef 2, i32 noundef 0)
  %25 = load ptr, ptr %3, align 8
  %26 = load i32, ptr @hf_nfapi_csi_rs_number_of_nzp_configurations, align 4
  %27 = call ptr @ptvcursor_add_ret_uint(ptr noundef %25, i32 noundef %26, i32 noundef 1, i32 noundef 0, ptr noundef %7)
  store ptr %27, ptr %5, align 8
  %28 = load i32, ptr %7, align 4
  %29 = icmp ugt i32 %28, 3
  br i1 %29, label %30, label %34

30:                                               ; preds = %18
  %31 = load ptr, ptr %4, align 8
  %32 = load ptr, ptr %5, align 8
  %33 = call ptr (ptr, ptr, ptr, ptr, ...) @expert_add_info_format(ptr noundef %31, ptr noundef %32, ptr noundef @ei_invalid_range, ptr noundef @.str.2058)
  br label %34

34:                                               ; preds = %30, %18
  %35 = load ptr, ptr %3, align 8
  %36 = load ptr, ptr %4, align 8
  %37 = load i32, ptr @ett_nfapi_csi_rs_resource_configs, align 4
  %38 = load i32, ptr %7, align 4
  call void @dissect_array_value(ptr noundef %35, ptr noundef %36, ptr noundef @.str.2059, i32 noundef %37, i32 noundef %38, ptr noundef @dissect_csi_rs_resource_config_value)
  %39 = load ptr, ptr %3, align 8
  %40 = load i32, ptr @hf_nfapi_pdsch_start, align 4
  %41 = call ptr @ptvcursor_add_ret_uint(ptr noundef %39, i32 noundef %40, i32 noundef 1, i32 noundef 0, ptr noundef %6)
  %42 = load i32, ptr %6, align 4
  %43 = icmp ugt i32 %42, 4
  br i1 %43, label %44, label %48

44:                                               ; preds = %34
  %45 = load ptr, ptr %4, align 8
  %46 = load ptr, ptr %5, align 8
  %47 = call ptr (ptr, ptr, ptr, ptr, ...) @expert_add_info_format(ptr noundef %45, ptr noundef %46, ptr noundef @ei_invalid_range, ptr noundef @.str.2060)
  br label %48

48:                                               ; preds = %44, %34
  ret void
}