; Function Attrs: nounwind uwtable
define internal void @dissect_dl_config_request_dlsch_pdu_rel10_value(ptr noundef %0, ptr noundef %1) #0 {
  %3 = alloca i32, align 4
  %4 = alloca i32, align 4
  %5 = alloca i32, align 4
  %6 = alloca i32, align 4
  %7 = load i32, ptr @hf_nfapi_csi_rs_flag, align 4
  %8 = call ptr @ptvcursor_add_ret_boolean(ptr noundef %0, i32 noundef %7, i32 noundef 1, i32 noundef 0, ptr noundef nonnull %6) #7
  %9 = load i32, ptr %6, align 4
  %10 = icmp sgt i32 %9, 1
  br i1 %10, label %11, label %13

11:                                               ; preds = %2
  %12 = call ptr (ptr, ptr, ptr, ptr, ...) @expert_add_info_format(ptr noundef %1, ptr noundef %8, ptr noundef nonnull @ei_invalid_range, ptr noundef nonnull @.str.2057) #7
  br label %13

13:                                               ; preds = %11, %2
  %14 = load i32, ptr @hf_nfapi_csi_rs_resource_config_r10, align 4
  %15 = call ptr @ptvcursor_add(ptr noundef %0, i32 noundef %14, i32 noundef 1, i32 noundef 0) #7
  %16 = load i32, ptr @hf_nfapi_csi_rs_zero_tx_power_resource_config_bitmap_r10, align 4
  %17 = call ptr @ptvcursor_add(ptr noundef %0, i32 noundef %16, i32 noundef 2, i32 noundef 0) #7
  %18 = load i32, ptr @hf_nfapi_csi_rs_number_of_nzp_configurations, align 4
  %19 = call ptr @ptvcursor_add_ret_uint(ptr noundef %0, i32 noundef %18, i32 noundef 1, i32 noundef 0, ptr noundef nonnull %5) #7
  %20 = load i32, ptr %5, align 4
  %21 = icmp ugt i32 %20, 3
  br i1 %21, label %22, label %24

22:                                               ; preds = %13
  %23 = call ptr (ptr, ptr, ptr, ptr, ...) @expert_add_info_format(ptr noundef %1, ptr noundef %19, ptr noundef nonnull @ei_invalid_range, ptr noundef nonnull @.str.2058) #7
  %.pr = load i32, ptr %5, align 4
  br label %24

24:                                               ; preds = %22, %13
  %25 = phi i32 [ %.pr, %22 ], [ %20, %13 ]
  %26 = load i32, ptr @ett_nfapi_csi_rs_resource_configs, align 4
  %.not.i = icmp eq i32 %25, 0
  br i1 %.not.i, label %dissect_array_value.exit, label %27

27:                                               ; preds = %24
  %28 = call ptr (ptr, i32, i32, ptr, ...) @ptvcursor_add_text_with_subtree(ptr noundef %0, i32 noundef -1, i32 noundef %26, ptr noundef nonnull @.str.1839, ptr noundef nonnull @.str.2059) #7
  br label %29

29:                                               ; preds = %dissect_csi_rs_resource_config_value.exit, %27
  %30 = phi i32 [ 0, %27 ], [ %39, %dissect_csi_rs_resource_config_value.exit ]
  %.016.i = phi i16 [ 0, %27 ], [ %38, %dissect_csi_rs_resource_config_value.exit ]
  %31 = call ptr (ptr, i32, i32, ptr, ...) @ptvcursor_add_text_with_subtree(ptr noundef %0, i32 noundef -1, i32 noundef %26, ptr noundef nonnull @.str.1840, i32 noundef %30) #7
  call void @llvm.lifetime.start.p0(i64 4, ptr nonnull %3)
  %32 = load i32, ptr @hf_nfapi_csi_rs_resource_config, align 4
  %33 = call ptr @ptvcursor_add_ret_uint(ptr noundef %0, i32 noundef %32, i32 noundef 1, i32 noundef 0, ptr noundef nonnull %3) #7
  %34 = load i32, ptr %3, align 4
  %35 = icmp ugt i32 %34, 31
  br i1 %35, label %36, label %dissect_csi_rs_resource_config_value.exit

36:                                               ; preds = %29
  %37 = call ptr (ptr, ptr, ptr, ptr, ...) @expert_add_info_format(ptr noundef %1, ptr noundef %33, ptr noundef nonnull @ei_invalid_range, ptr noundef nonnull @.str.2061) #7
  br label %dissect_csi_rs_resource_config_value.exit

dissect_csi_rs_resource_config_value.exit:        ; preds = %29, %36
  call void @llvm.lifetime.end.p0(i64 4, ptr nonnull %3)
  call void @ptvcursor_pop_subtree(ptr noundef %0) #7
  %38 = add i16 %.016.i, 1
  %39 = zext i16 %38 to i32
  %40 = icmp ugt i32 %25, %39
  br i1 %40, label %29, label %41, !llvm.loop !4

41:                                               ; preds = %dissect_csi_rs_resource_config_value.exit
  call void @ptvcursor_pop_subtree(ptr noundef %0) #7
  br label %dissect_array_value.exit

dissect_array_value.exit:                         ; preds = %24, %41
  %42 = load i32, ptr @hf_nfapi_pdsch_start, align 4
  %43 = call ptr @ptvcursor_add_ret_uint(ptr noundef %0, i32 noundef %42, i32 noundef 1, i32 noundef 0, ptr noundef nonnull %4) #7
  %44 = load i32, ptr %4, align 4
  %45 = icmp ugt i32 %44, 4
  br i1 %45, label %46, label %48

46:                                               ; preds = %dissect_array_value.exit
  %47 = call ptr (ptr, ptr, ptr, ptr, ...) @expert_add_info_format(ptr noundef %1, ptr noundef %19, ptr noundef nonnull @ei_invalid_range, ptr noundef nonnull @.str.2060) #7
  br label %48

48:                                               ; preds = %46, %dissect_array_value.exit
  ret void
}